(dp0
Vengine
p1
S'pdflatex'
p2
sVpackages
p3
c__builtin__
set
p4
((lp5
Vcolor
p6
aVinputenc
p7
aVcaption
p8
aVfontenc
p9
aVimport
p10
aVgraphicx
p11
atp12
Rp13
sVfiles_with_guttermarks
p14
g4
((lp15
V/Users/codemonk/uni/fau/FabLab/presentations/innvovationslabor/innovationslabor.tex
p16
aS'innovationslabor.tex'
p17
aV/Users/codemonk/uni/fau/FabLab/presentations/innvovationslabor/./innovationslabor.tex
p18
atp19
Rp20
sVsynctex
p21
I01
s.